; Function Attrs: mustprogress nounwind uwtable
define internal fastcc void @_ZL26emit_store_fast_path_checkP14MacroAssembler7AddressbR5Label(ptr noundef %0, ptr noundef %1, i1 noundef zeroext %2, ptr noundef nonnull align 8 dereferenceable(33) %3) unnamed_addr #1 {
  %5 = alloca %class.Address, align 8
  %6 = alloca %class.RelocationHolder, align 8
  %7 = alloca %class.Address, align 8
  %8 = alloca %class.RelocationHolder, align 8
  %9 = getelementptr inbounds i8, ptr %1, i64 24
  %10 = getelementptr inbounds i8, ptr %0, i64 8
  br i1 %2, label %11, label %21

11:                                               ; preds = %4
  call void @llvm.memcpy.p0.p0.i64(ptr noundef nonnull align 8 dereferenceable(21) %5, ptr noundef nonnull align 8 dereferenceable(21) %1, i64 21, i1 false)
  %12 = getelementptr inbounds i8, ptr %5, i64 24
  %13 = load ptr, ptr %9, align 8
  %14 = getelementptr inbounds i8, ptr %13, i64 16
  %15 = load ptr, ptr %14, align 8
  call void %15(ptr noundef nonnull align 8 dereferenceable(20) %9, ptr noundef nonnull align 8 dereferenceable(40) %12) #12
  call void @_ZN9Assembler4cmpwE7Addressi(ptr noundef nonnull align 8 dereferenceable(40) %0, ptr noundef nonnull %5, i32 noundef 0) #12
  %16 = getelementptr inbounds i8, ptr %6, i64 8
  store ptr null, ptr %16, align 8, !alias.scope !16
  %17 = getelementptr inbounds i8, ptr %6, i64 16
  store i32 18, ptr %17, align 8, !alias.scope !16
  store ptr getelementptr inbounds inrange(-16, 72) (i8, ptr @_ZTV18barrier_Relocation, i64 16), ptr %6, align 8, !alias.scope !16
  %18 = load ptr, ptr %10, align 8
  %19 = getelementptr inbounds i8, ptr %18, i64 16
  %20 = load ptr, ptr %19, align 8
  call void @_ZN11CodeSection8relocateEPhRK16RelocationHolderi(ptr noundef nonnull align 8 dereferenceable(88) %18, ptr noundef %20, ptr noundef nonnull align 8 dereferenceable(40) %6, i32 noundef 3) #12
  br label %31

21:                                               ; preds = %4
  call void @llvm.memcpy.p0.p0.i64(ptr noundef nonnull align 8 dereferenceable(21) %7, ptr noundef nonnull align 8 dereferenceable(21) %1, i64 21, i1 false)
  %22 = getelementptr inbounds i8, ptr %7, i64 24
  %23 = load ptr, ptr %9, align 8
  %24 = getelementptr inbounds i8, ptr %23, i64 16
  %25 = load ptr, ptr %24, align 8
  call void %25(ptr noundef nonnull align 8 dereferenceable(20) %9, ptr noundef nonnull align 8 dereferenceable(40) %22) #12
  call void @_ZN9Assembler5testlE7Addressi(ptr noundef nonnull align 8 dereferenceable(40) %0, ptr noundef nonnull %7, i32 noundef 0) #12
  %26 = getelementptr inbounds i8, ptr %8, i64 8
  store ptr null, ptr %26, align 8, !alias.scope !21
  %27 = getelementptr inbounds i8, ptr %8, i64 16
  store i32 18, ptr %27, align 8, !alias.scope !21
  store ptr getelementptr inbounds inrange(-16, 72) (i8, ptr @_ZTV18barrier_Relocation, i64 16), ptr %8, align 8, !alias.scope !21
  %28 = load ptr, ptr %10, align 8
  %29 = getelementptr inbounds i8, ptr %28, i64 16
  %30 = load ptr, ptr %29, align 8
  call void @_ZN11CodeSection8relocateEPhRK16RelocationHolderi(ptr noundef nonnull align 8 dereferenceable(88) %28, ptr noundef %30, ptr noundef nonnull align 8 dereferenceable(40) %8, i32 noundef 4) #12
  br label %31

31:                                               ; preds = %21, %11
  call void @_ZN9Assembler3jccENS_9ConditionER5Labelb(ptr noundef nonnull align 8 dereferenceable(40) %0, i32 noundef 5, ptr noundef nonnull align 8 dereferenceable(33) %3, i1 noundef zeroext true) #12
  ret void
}